target datalayout = "e-m:e-p270:32:32-p271:32:32-p272:64:64-i64:64-i128:128-f80:128-n8:16:32:64-S128"
target triple = "x86_64-unknown-linux-gnu"

%"class.absl::lts_20230802::Status" = type { i64 }
%"class.grpc_core::promise_detail::TrySeq" = type { %"struct.grpc_core::promise_detail::SeqState" }
%"struct.grpc_core::promise_detail::SeqState" = type <{ %union.anon.23, i8, [7 x i8] }>
%union.anon.23 = type { %"struct.grpc_core::promise_detail::SeqState<grpc_core::promise_detail::TrySeqTraits, grpc_core::Sleep, (lambda at /home/dtcxzyw/WorkSpace/Projects/compilers/llvm-opt-benchmark/bench/grpc/grpc/src/core/ext/filters/channel_idle/channel_idle_filter.cc:195:13), (lambda at /home/dtcxzyw/WorkSpace/Projects/compilers/llvm-opt-benchmark/bench/grpc/grpc/src/core/ext/filters/channel_idle/channel_idle_filter.cc:217:13)>::Running1" }
%"struct.grpc_core::promise_detail::SeqState<grpc_core::promise_detail::TrySeqTraits, grpc_core::Sleep, (lambda at /home/dtcxzyw/WorkSpace/Projects/compilers/llvm-opt-benchmark/bench/grpc/grpc/src/core/ext/filters/channel_idle/channel_idle_filter.cc:195:13), (lambda at /home/dtcxzyw/WorkSpace/Projects/compilers/llvm-opt-benchmark/bench/grpc/grpc/src/core/ext/filters/channel_idle/channel_idle_filter.cc:217:13)>::Running1" = type { %union.anon.24, %"class.grpc_core::promise_detail::OncePromiseFactory.27" }
%union.anon.24 = type { %"struct.grpc_core::promise_detail::SeqState<grpc_core::promise_detail::TrySeqTraits, grpc_core::Sleep, (lambda at /home/dtcxzyw/WorkSpace/Projects/compilers/llvm-opt-benchmark/bench/grpc/grpc/src/core/ext/filters/channel_idle/channel_idle_filter.cc:195:13), (lambda at /home/dtcxzyw/WorkSpace/Projects/compilers/llvm-opt-benchmark/bench/grpc/grpc/src/core/ext/filters/channel_idle/channel_idle_filter.cc:217:13)>::Running0" }
%"struct.grpc_core::promise_detail::SeqState<grpc_core::promise_detail::TrySeqTraits, grpc_core::Sleep, (lambda at /home/dtcxzyw/WorkSpace/Projects/compilers/llvm-opt-benchmark/bench/grpc/grpc/src/core/ext/filters/channel_idle/channel_idle_filter.cc:195:13), (lambda at /home/dtcxzyw/WorkSpace/Projects/compilers/llvm-opt-benchmark/bench/grpc/grpc/src/core/ext/filters/channel_idle/channel_idle_filter.cc:217:13)>::Running0" = type { %"class.grpc_core::promise_detail::PromiseLike", %"class.grpc_core::promise_detail::OncePromiseFactory" }
%"class.grpc_core::promise_detail::PromiseLike" = type { %"class.grpc_core::Sleep" }
%"class.grpc_core::Sleep" = type { %"class.grpc_core::Timestamp", ptr }
%"class.grpc_core::Timestamp" = type { i64 }
%"class.grpc_core::promise_detail::OncePromiseFactory" = type { %class.anon.25 }
%class.anon.25 = type { ptr }
%"class.grpc_core::promise_detail::OncePromiseFactory.27" = type { %class.anon.28 }
%class.anon.28 = type { ptr }
%"class.grpc_core::promise_detail::PromiseLike.26" = type { %"class.grpc_core::promise_detail::Immediate" }
%"class.grpc_core::promise_detail::Immediate" = type { %"class.absl::lts_20230802::Status" }

; Function Attrs: mustprogress nounwind uwtable
define linkonce_odr noundef zeroext i1 @_ZN4absl12lts_202308026Status9IsInlinedEm(i64 noundef %rep) #5 comdat align 2 {
entry:
  %rep.addr = alloca i64, align 8
  store i64 %rep, ptr %rep.addr, align 8
  %0 = load i64, ptr %rep.addr, align 8
  %and = and i64 %0, 1
  %cmp = icmp eq i64 %and, 0
  ret i1 %cmp
}

; Function Attrs: mustprogress uwtable
define linkonce_odr void @_ZN4absl12lts_202308026Status5UnrefEm(i64 noundef %rep) #4 comdat align 2 {
entry:
  %rep.addr = alloca i64, align 8
  store i64 %rep, ptr %rep.addr, align 8
  %0 = load i64, ptr %rep.addr, align 8
  %call = call noundef zeroext i1 @_ZN4absl12lts_202308026Status9IsInlinedEm(i64 noundef %0)
  br i1 %call, label %if.end, label %if.then

if.then:                                          ; preds = %entry
  %1 = load i64, ptr %rep.addr, align 8
  call void @_ZN4absl12lts_202308026Status15UnrefNonInlinedEm(i64 noundef %1)
  br label %if.end

if.end:                                           ; preds = %if.then, %entry
  ret void
}

; Function Attrs: mustprogress nounwind uwtable
define linkonce_odr void @_ZN4absl12lts_202308026StatusD2Ev(ptr noundef nonnull align 8 dereferenceable(8) %this) unnamed_addr #5 comdat align 2 personality ptr @__gxx_personality_v0 {
entry:
  %this.addr = alloca ptr, align 8
  store ptr %this, ptr %this.addr, align 8
  %this1 = load ptr, ptr %this.addr, align 8
  %rep_ = getelementptr inbounds %"class.absl::lts_20230802::Status", ptr %this1, i32 0, i32 0
  %0 = load i64, ptr %rep_, align 8
  invoke void @_ZN4absl12lts_202308026Status5UnrefEm(i64 noundef %0)
          to label %invoke.cont unwind label %terminate.lpad

invoke.cont:                                      ; preds = %entry
  ret void

terminate.lpad:                                   ; preds = %entry
  %1 = landingpad { ptr, i32 }
          catch ptr null
  %2 = extractvalue { ptr, i32 } %1, 0
  call void @__clang_call_terminate(ptr %2) #18
  unreachable
}

; Function Attrs: mustprogress nounwind uwtable
define linkonce_odr void @_ZN9grpc_core14promise_detail9ImmediateIN4absl12lts_202308026StatusEED2Ev(ptr noundef nonnull align 8 dereferenceable(8) %this) unnamed_addr #5 comdat align 2 {
entry:
  %this.addr = alloca ptr, align 8
  store ptr %this, ptr %this.addr, align 8
  %this1 = load ptr, ptr %this.addr, align 8
  %value_ = getelementptr inbounds %"class.grpc_core::promise_detail::Immediate", ptr %this1, i32 0, i32 0
  call void @_ZN4absl12lts_202308026StatusD2Ev(ptr noundef nonnull align 8 dereferenceable(8) %value_) #3
  ret void
}

; Function Attrs: mustprogress nounwind uwtable
define linkonce_odr void @_ZN9grpc_core14promise_detail11PromiseLikeINS0_9ImmediateIN4absl12lts_202308026StatusEEEvED2Ev(ptr noundef nonnull align 8 dereferenceable(8) %this) unnamed_addr #5 comdat align 2 {
entry:
  %this.addr = alloca ptr, align 8
  store ptr %this, ptr %this.addr, align 8
  %this1 = load ptr, ptr %this.addr, align 8
  %f_ = getelementptr inbounds %"class.grpc_core::promise_detail::PromiseLike.26", ptr %this1, i32 0, i32 0
  call void @_ZN9grpc_core14promise_detail9ImmediateIN4absl12lts_202308026StatusEED2Ev(ptr noundef nonnull align 8 dereferenceable(8) %f_) #3
  ret void
}

; Function Attrs: mustprogress nounwind uwtable
define linkonce_odr void @_ZN9grpc_core14promise_detail11PromiseLikeINS_5SleepEvED2Ev(ptr noundef nonnull align 8 dereferenceable(16) %this) unnamed_addr #5 comdat align 2 {
entry:
  %this.addr = alloca ptr, align 8
  store ptr %this, ptr %this.addr, align 8
  %this1 = load ptr, ptr %this.addr, align 8
  %f_ = getelementptr inbounds %"class.grpc_core::promise_detail::PromiseLike", ptr %this1, i32 0, i32 0
  call void @_ZN9grpc_core5SleepD1Ev(ptr noundef nonnull align 8 dereferenceable(16) %f_) #3
  ret void
}

; Function Attrs: mustprogress nounwind uwtable
define internal void @"_ZN9grpc_core8DestructINS_14promise_detail18OncePromiseFactoryIvZNS_12MaxAgeFilter8PostInitEvE3$_2EEEEvPT_"(ptr noundef %p) #5 {
entry:
  %p.addr = alloca ptr, align 8
  store ptr %p, ptr %p.addr, align 8
  ret void
}

; Function Attrs: mustprogress nounwind uwtable
define internal void @"_ZN9grpc_core8DestructINS_14promise_detail18OncePromiseFactoryIvZNS_12MaxAgeFilter8PostInitEvE3$_1EEEEvPT_"(ptr noundef %p) #5 {
entry:
  %p.addr = alloca ptr, align 8
  store ptr %p, ptr %p.addr, align 8
  ret void
}

; Function Attrs: mustprogress nounwind uwtable
define linkonce_odr void @_ZN9grpc_core8DestructINS_14promise_detail11PromiseLikeINS1_9ImmediateIN4absl12lts_202308026StatusEEEvEEEEvPT_(ptr noundef %p) #5 comdat {
entry:
  %p.addr = alloca ptr, align 8
  store ptr %p, ptr %p.addr, align 8
  %0 = load ptr, ptr %p.addr, align 8
  call void @_ZN9grpc_core14promise_detail11PromiseLikeINS0_9ImmediateIN4absl12lts_202308026StatusEEEvED2Ev(ptr noundef nonnull align 8 dereferenceable(8) %0) #3
  ret void
}

; Function Attrs: mustprogress nounwind uwtable
define linkonce_odr void @_ZN9grpc_core8DestructINS_14promise_detail11PromiseLikeINS_5SleepEvEEEEvPT_(ptr noundef %p) #5 comdat {
entry:
  %p.addr = alloca ptr, align 8
  store ptr %p, ptr %p.addr, align 8
  %0 = load ptr, ptr %p.addr, align 8
  call void @_ZN9grpc_core14promise_detail11PromiseLikeINS_5SleepEvED2Ev(ptr noundef nonnull align 8 dereferenceable(16) %0) #3
  ret void
}

; Function Attrs: mustprogress nounwind uwtable
define internal void @"_ZN9grpc_core14promise_detail8SeqStateINS0_12TrySeqTraitsENS_5SleepEJZNS_12MaxAgeFilter8PostInitEvE3$_1ZNS4_8PostInitEvE3$_2EED2Ev"(ptr noundef nonnull align 8 dereferenceable(33) %this) unnamed_addr #5 align 2 personality ptr @__gxx_personality_v0 {
entry:
  %this.addr = alloca ptr, align 8
  store ptr %this, ptr %this.addr, align 8
  %this1 = load ptr, ptr %this.addr, align 8
  %state = getelementptr inbounds %"struct.grpc_core::promise_detail::SeqState", ptr %this1, i32 0, i32 1
  %0 = load i8, ptr %state, align 8
  switch i8 %0, label %sw.epilog [
    i8 0, label %sw.bb
    i8 1, label %sw.bb2
    i8 2, label %sw.bb4
  ]

sw.bb:                                            ; preds = %entry
  %1 = getelementptr inbounds %"struct.grpc_core::promise_detail::SeqState", ptr %this1, i32 0, i32 0
  %2 = getelementptr inbounds %"struct.grpc_core::promise_detail::SeqState<grpc_core::promise_detail::TrySeqTraits, grpc_core::Sleep, (lambda at /home/dtcxzyw/WorkSpace/Projects/compilers/llvm-opt-benchmark/bench/grpc/grpc/src/core/ext/filters/channel_idle/channel_idle_filter.cc:195:13), (lambda at /home/dtcxzyw/WorkSpace/Projects/compilers/llvm-opt-benchmark/bench/grpc/grpc/src/core/ext/filters/channel_idle/channel_idle_filter.cc:217:13)>::Running1", ptr %1, i32 0, i32 0
  %current_promise = getelementptr inbounds %"struct.grpc_core::promise_detail::SeqState<grpc_core::promise_detail::TrySeqTraits, grpc_core::Sleep, (lambda at /home/dtcxzyw/WorkSpace/Projects/compilers/llvm-opt-benchmark/bench/grpc/grpc/src/core/ext/filters/channel_idle/channel_idle_filter.cc:195:13), (lambda at /home/dtcxzyw/WorkSpace/Projects/compilers/llvm-opt-benchmark/bench/grpc/grpc/src/core/ext/filters/channel_idle/channel_idle_filter.cc:217:13)>::Running0", ptr %2, i32 0, i32 0
  invoke void @_ZN9grpc_core8DestructINS_14promise_detail11PromiseLikeINS_5SleepEvEEEEvPT_(ptr noundef %current_promise)
          to label %invoke.cont unwind label %terminate.lpad

invoke.cont:                                      ; preds = %sw.bb
  br label %tail0

sw.bb2:                                           ; preds = %entry
  %3 = getelementptr inbounds %"struct.grpc_core::promise_detail::SeqState", ptr %this1, i32 0, i32 0
  %4 = getelementptr inbounds %"struct.grpc_core::promise_detail::SeqState<grpc_core::promise_detail::TrySeqTraits, grpc_core::Sleep, (lambda at /home/dtcxzyw/WorkSpace/Projects/compilers/llvm-opt-benchmark/bench/grpc/grpc/src/core/ext/filters/channel_idle/channel_idle_filter.cc:195:13), (lambda at /home/dtcxzyw/WorkSpace/Projects/compilers/llvm-opt-benchmark/bench/grpc/grpc/src/core/ext/filters/channel_idle/channel_idle_filter.cc:217:13)>::Running1", ptr %3, i32 0, i32 0
  invoke void @_ZN9grpc_core8DestructINS_14promise_detail11PromiseLikeINS1_9ImmediateIN4absl12lts_202308026StatusEEEvEEEEvPT_(ptr noundef %4)
          to label %invoke.cont3 unwind label %terminate.lpad

invoke.cont3:                                     ; preds = %sw.bb2
  br label %tail1

sw.bb4:                                           ; preds = %entry
  %5 = getelementptr inbounds %"struct.grpc_core::promise_detail::SeqState", ptr %this1, i32 0, i32 0
  invoke void @_ZN9grpc_core8DestructINS_14promise_detail11PromiseLikeINS_5SleepEvEEEEvPT_(ptr noundef %5)
          to label %invoke.cont5 unwind label %terminate.lpad

invoke.cont5:                                     ; preds = %sw.bb4
  br label %invoke.cont8

sw.epilog:                                        ; preds = %entry
  br label %tail0

tail0:                                            ; preds = %sw.epilog, %invoke.cont
  %6 = getelementptr inbounds %"struct.grpc_core::promise_detail::SeqState", ptr %this1, i32 0, i32 0
  %7 = getelementptr inbounds %"struct.grpc_core::promise_detail::SeqState<grpc_core::promise_detail::TrySeqTraits, grpc_core::Sleep, (lambda at /home/dtcxzyw/WorkSpace/Projects/compilers/llvm-opt-benchmark/bench/grpc/grpc/src/core/ext/filters/channel_idle/channel_idle_filter.cc:195:13), (lambda at /home/dtcxzyw/WorkSpace/Projects/compilers/llvm-opt-benchmark/bench/grpc/grpc/src/core/ext/filters/channel_idle/channel_idle_filter.cc:217:13)>::Running1", ptr %6, i32 0, i32 0
  %next_factory = getelementptr inbounds %"struct.grpc_core::promise_detail::SeqState<grpc_core::promise_detail::TrySeqTraits, grpc_core::Sleep, (lambda at /home/dtcxzyw/WorkSpace/Projects/compilers/llvm-opt-benchmark/bench/grpc/grpc/src/core/ext/filters/channel_idle/channel_idle_filter.cc:195:13), (lambda at /home/dtcxzyw/WorkSpace/Projects/compilers/llvm-opt-benchmark/bench/grpc/grpc/src/core/ext/filters/channel_idle/channel_idle_filter.cc:217:13)>::Running0", ptr %7, i32 0, i32 1
  invoke void @"_ZN9grpc_core8DestructINS_14promise_detail18OncePromiseFactoryIvZNS_12MaxAgeFilter8PostInitEvE3$_1EEEEvPT_"(ptr noundef %next_factory)
          to label %invoke.cont6 unwind label %terminate.lpad

invoke.cont6:                                     ; preds = %tail0
  br label %tail1

tail1:                                            ; preds = %invoke.cont6, %invoke.cont3
  %8 = getelementptr inbounds %"struct.grpc_core::promise_detail::SeqState", ptr %this1, i32 0, i32 0
  %next_factory7 = getelementptr inbounds %"struct.grpc_core::promise_detail::SeqState<grpc_core::promise_detail::TrySeqTraits, grpc_core::Sleep, (lambda at /home/dtcxzyw/WorkSpace/Projects/compilers/llvm-opt-benchmark/bench/grpc/grpc/src/core/ext/filters/channel_idle/channel_idle_filter.cc:195:13), (lambda at /home/dtcxzyw/WorkSpace/Projects/compilers/llvm-opt-benchmark/bench/grpc/grpc/src/core/ext/filters/channel_idle/channel_idle_filter.cc:217:13)>::Running1", ptr %8, i32 0, i32 1
  invoke void @"_ZN9grpc_core8DestructINS_14promise_detail18OncePromiseFactoryIvZNS_12MaxAgeFilter8PostInitEvE3$_2EEEEvPT_"(ptr noundef %next_factory7)
          to label %invoke.cont8 unwind label %terminate.lpad

invoke.cont8:                                     ; preds = %tail1, %invoke.cont5
  ret void

terminate.lpad:                                   ; preds = %tail1, %tail0, %sw.bb4, %sw.bb2, %sw.bb
  %9 = landingpad { ptr, i32 }
          catch ptr null
  %10 = extractvalue { ptr, i32 } %9, 0
  call void @__clang_call_terminate(ptr %10) #18
  unreachable
}

; Function Attrs: mustprogress nounwind uwtable
define internal void @"_ZN9grpc_core14promise_detail6TrySeqINS_5SleepEJZNS_12MaxAgeFilter8PostInitEvE3$_1ZNS3_8PostInitEvE3$_2EED2Ev"(ptr noundef nonnull align 8 dereferenceable(40) %this) unnamed_addr #5 align 2 {
entry:
  %this.addr = alloca ptr, align 8
  store ptr %this, ptr %this.addr, align 8
  %this1 = load ptr, ptr %this.addr, align 8
  %state_ = getelementptr inbounds %"class.grpc_core::promise_detail::TrySeq", ptr %this1, i32 0, i32 0
  call void @"_ZN9grpc_core14promise_detail8SeqStateINS0_12TrySeqTraitsENS_5SleepEJZNS_12MaxAgeFilter8PostInitEvE3$_1ZNS4_8PostInitEvE3$_2EED2Ev"(ptr noundef nonnull align 8 dereferenceable(33) %state_) #3
  ret void
}